/*
 * Intel ACPI Component Architecture
 * AML/ASL+ Disassembler version 20190509 (64-bit version)
 * Copyright (c) 2000 - 2019 Intel Corporation
 * 
 * Disassembly of CSRT0000.bin, Wed Jun 16 09:46:15 2021
 *
 * ACPI Data Table [CSRT]
 *
 * Format: [HexOffset DecimalOffset ByteLength]  FieldName : FieldValue
 */

[000h 0000   4]                    Signature : "CSRT"    [Core System Resource Table]
[004h 0004   4]                 Table Length : 0000046D
[008h 0008   1]                     Revision : 00
[009h 0009   1]                     Checksum : 3D
[00Ah 0010   6]                       Oem ID : "NVIDIA"
[010h 0016   8]                 Oem Table ID : "AP30EDK2"
[018h 0024   4]                 Oem Revision : 02000820
[01Ch 0028   4]              Asl Compiler ID : "AP30"
[020h 0032   4]        Asl Compiler Revision : 00000097


[024h 0036   4]                       Length : 00000381
[028h 0040   4]                    Vendor ID : 4144564E
[02Ch 0044   4]                 Subvendor ID : 00000000
[030h 0048   2]                    Device ID : 0009
[032h 0050   2]                 Subdevice ID : 0000
[034h 0052   2]                     Revision : 0000
[036h 0054   2]                     Reserved : 0000
[038h 0056   4]           Shared Info Length : 00000000

[03Ch 0060   2]                Major Version : 0169
[03Eh 0062   2]                Minor Version : 0000
[040h 0064   4]        MMIO Base Address Low : 00010003
[044h 0068   4]       MMIO Base Address High : 00000000
[048h 0072   4]                GSI Interrupt : 6000A000
[04Ch 0076   1]           Interrupt Polarity : 20
[04Dh 0077   1]               Interrupt Mode : 00
[04Eh 0078   1]                 Num Channels : 00
[04Fh 0079   1]            DMA Address Width : 00
[050h 0080   2]            Base Request Line : 0030
[052h 0082   2]        Num Handshake Signals : 0000
[054h 0084   4]               Max Block Size : 00000000

[03Ch 0060   4]                       Length : 00000169
[040h 0064   2]                         Type : 0003
[042h 0066   2]                      Subtype : 0001
[044h 0068   4]                          UID : 00000000
[048h 0072 349]                 ResourceInfo : \
    00 A0 00 60 20 00 00 00 30 00 00 00 00 00 00 00 \
    40 00 00 00 3A 00 00 00 00 14 00 00 00 01 00 00 \
    00 00 00 20 00 00 00 00 A4 00 00 01 20 02 00 00 \
    00 00 00 20 00 00 00 00 A4 00 00 01 20 03 00 00 \
    00 00 00 20 00 00 00 00 A4 00 00 01 20 04 00 00 \
    00 00 00 20 00 00 00 00 A4 00 00 01 20 08 00 00 \
    00 00 00 20 00 00 00 00 A4 00 00 01 00 09 00 00 \
    00 00 00 20 00 00 00 00 A4 00 00 01 00 0A 00 00 \
    00 00 00 20 00 00 00 00 A4 00 00 01 00 13 00 00 \
    00 00 00 20 00 00 00 00 A4 00 00 01 00 14 00 00 \
    00 00 00 20 00 00 00 00 A4 00 00 01 00 15 00 00 \
    00 00 00 20 00 00 00 00 A4 00 00 01 00 16 00 00 \
    00 00 00 20 00 00 00 00 A4 00 00 01 00 17 00 00 \
    00 00 00 20 00 00 00 00 A4 00 00 01 00 1A 00 00 \
    00 00 00 20 00 00 00 00 A4 00 00 01 00 18 00 00 \
    00 00 00 20 00 00 00 00 A4 00 00 01 00 0F 00 00 \
    00 00 00 20 00 00 00 00 A4 00 00 01 20 10 00 00 \
    00 00 00 20 00 00 00 00 A4 00 00 01 20 11 00 00 \
    00 00 00 20 00 00 00 00 A4 00 00 01 20 12 00 00 \
    00 00 00 20 00 00 00 00 A4 00 00 01 20 1B 00 00 \
    00 00 00 20 00 00 00 00 A4 00 00 01 20 1C 00 00 \
    00 00 00 20 00 00 00 00 A4 00 00 01 20 

[1A5h 0421   4]                       Length : 00000010
[1A9h 0425   2]                         Type : 0003
[1ABh 0427   2]                      Subtype : 0000
[1ADh 0429   4]                          UID : 00000001
[1B1h 0433   4]                 ResourceInfo : 00 00 00 00 

[1B5h 0437   4]                       Length : 00000010
[1B9h 0441   2]                         Type : 0003
[1BBh 0443   2]                      Subtype : 0000
[1BDh 0445   4]                          UID : 00000002
[1C1h 0449   4]                 ResourceInfo : 01 00 00 00 

[1C5h 0453   4]                       Length : 00000010
[1C9h 0457   2]                         Type : 0003
[1CBh 0459   2]                      Subtype : 0000
[1CDh 0461   4]                          UID : 00000003
[1D1h 0465   4]                 ResourceInfo : 02 00 00 00 

[1D5h 0469   4]                       Length : 00000010
[1D9h 0473   2]                         Type : 0003
[1DBh 0475   2]                      Subtype : 0000
[1DDh 0477   4]                          UID : 00000004
[1E1h 0481   4]                 ResourceInfo : 03 00 00 00 

[1E5h 0485   4]                       Length : 00000010
[1E9h 0489   2]                         Type : 0003
[1EBh 0491   2]                      Subtype : 0000
[1EDh 0493   4]                          UID : 00000005
[1F1h 0497   4]                 ResourceInfo : 04 00 00 00 

[1F5h 0501   4]                       Length : 00000010
[1F9h 0505   2]                         Type : 0003
[1FBh 0507   2]                      Subtype : 0000
[1FDh 0509   4]                          UID : 00000006
[201h 0513   4]                 ResourceInfo : 05 00 00 00 

[205h 0517   4]                       Length : 00000010
[209h 0521   2]                         Type : 0003
[20Bh 0523   2]                      Subtype : 0000
[20Dh 0525   4]                          UID : 00000007
[211h 0529   4]                 ResourceInfo : 06 00 00 00 

[215h 0533   4]                       Length : 00000010
[219h 0537   2]                         Type : 0003
[21Bh 0539   2]                      Subtype : 0000
[21Dh 0541   4]                          UID : 00000008
[221h 0545   4]                 ResourceInfo : 07 00 00 00 

[225h 0549   4]                       Length : 00000010
[229h 0553   2]                         Type : 0003
[22Bh 0555   2]                      Subtype : 0000
[22Dh 0557   4]                          UID : 00000009
[231h 0561   4]                 ResourceInfo : 08 00 00 00 

[235h 0565   4]                       Length : 00000010
[239h 0569   2]                         Type : 0003
[23Bh 0571   2]                      Subtype : 0000
[23Dh 0573   4]                          UID : 0000000A
[241h 0577   4]                 ResourceInfo : 09 00 00 00 

[245h 0581   4]                       Length : 00000010
[249h 0585   2]                         Type : 0003
[24Bh 0587   2]                      Subtype : 0000
[24Dh 0589   4]                          UID : 0000000B
[251h 0593   4]                 ResourceInfo : 0A 00 00 00 

[255h 0597   4]                       Length : 00000010
[259h 0601   2]                         Type : 0003
[25Bh 0603   2]                      Subtype : 0000
[25Dh 0605   4]                          UID : 0000000C
[261h 0609   4]                 ResourceInfo : 0B 00 00 00 

[265h 0613   4]                       Length : 00000010
[269h 0617   2]                         Type : 0003
[26Bh 0619   2]                      Subtype : 0000
[26Dh 0621   4]                          UID : 0000000D
[271h 0625   4]                 ResourceInfo : 0C 00 00 00 

[275h 0629   4]                       Length : 00000010
[279h 0633   2]                         Type : 0003
[27Bh 0635   2]                      Subtype : 0000
[27Dh 0637   4]                          UID : 0000000E
[281h 0641   4]                 ResourceInfo : 0D 00 00 00 

[285h 0645   4]                       Length : 00000010
[289h 0649   2]                         Type : 0003
[28Bh 0651   2]                      Subtype : 0000
[28Dh 0653   4]                          UID : 0000000F
[291h 0657   4]                 ResourceInfo : 0E 00 00 00 

[295h 0661   4]                       Length : 00000010
[299h 0665   2]                         Type : 0003
[29Bh 0667   2]                      Subtype : 0000
[29Dh 0669   4]                          UID : 00000010
[2A1h 0673   4]                 ResourceInfo : 0F 00 00 00 

[2A5h 0677   4]                       Length : 00000010
[2A9h 0681   2]                         Type : 0003
[2ABh 0683   2]                      Subtype : 0000
[2ADh 0685   4]                          UID : 00000011
[2B1h 0689   4]                 ResourceInfo : 10 00 00 00 

[2B5h 0693   4]                       Length : 00000010
[2B9h 0697   2]                         Type : 0003
[2BBh 0699   2]                      Subtype : 0000
[2BDh 0701   4]                          UID : 00000012
[2C1h 0705   4]                 ResourceInfo : 11 00 00 00 

[2C5h 0709   4]                       Length : 00000010
[2C9h 0713   2]                         Type : 0003
[2CBh 0715   2]                      Subtype : 0000
[2CDh 0717   4]                          UID : 00000013
[2D1h 0721   4]                 ResourceInfo : 12 00 00 00 

[2D5h 0725   4]                       Length : 00000010
[2D9h 0729   2]                         Type : 0003
[2DBh 0731   2]                      Subtype : 0000
[2DDh 0733   4]                          UID : 00000014
[2E1h 0737   4]                 ResourceInfo : 13 00 00 00 

[2E5h 0741   4]                       Length : 00000010
[2E9h 0745   2]                         Type : 0003
[2EBh 0747   2]                      Subtype : 0000
[2EDh 0749   4]                          UID : 00000015
[2F1h 0753   4]                 ResourceInfo : 14 00 00 00 

[2F5h 0757   4]                       Length : 00000010
[2F9h 0761   2]                         Type : 0003
[2FBh 0763   2]                      Subtype : 0000
[2FDh 0765   4]                          UID : 00000016
[301h 0769   4]                 ResourceInfo : 15 00 00 00 

[305h 0773   4]                       Length : 00000010
[309h 0777   2]                         Type : 0003
[30Bh 0779   2]                      Subtype : 0000
[30Dh 0781   4]                          UID : 00000017
[311h 0785   4]                 ResourceInfo : 16 00 00 00 

[315h 0789   4]                       Length : 00000010
[319h 0793   2]                         Type : 0003
[31Bh 0795   2]                      Subtype : 0000
[31Dh 0797   4]                          UID : 00000018
[321h 0801   4]                 ResourceInfo : 17 00 00 00 

[325h 0805   4]                       Length : 00000010
[329h 0809   2]                         Type : 0003
[32Bh 0811   2]                      Subtype : 0000
[32Dh 0813   4]                          UID : 00000019
[331h 0817   4]                 ResourceInfo : 18 00 00 00 

[335h 0821   4]                       Length : 00000010
[339h 0825   2]                         Type : 0003
[33Bh 0827   2]                      Subtype : 0000
[33Dh 0829   4]                          UID : 0000001A
[341h 0833   4]                 ResourceInfo : 19 00 00 00 

[345h 0837   4]                       Length : 00000010
[349h 0841   2]                         Type : 0003
[34Bh 0843   2]                      Subtype : 0000
[34Dh 0845   4]                          UID : 0000001B
[351h 0849   4]                 ResourceInfo : 1A 00 00 00 

[355h 0853   4]                       Length : 00000010
[359h 0857   2]                         Type : 0003
[35Bh 0859   2]                      Subtype : 0000
[35Dh 0861   4]                          UID : 0000001C
[361h 0865   4]                 ResourceInfo : 1B 00 00 00 

[365h 0869   4]                       Length : 00000010
[369h 0873   2]                         Type : 0003
[36Bh 0875   2]                      Subtype : 0000
[36Dh 0877   4]                          UID : 0000001D
[371h 0881   4]                 ResourceInfo : 1C 00 00 00 

[375h 0885   4]                       Length : 00000010
[379h 0889   2]                         Type : 0003
[37Bh 0891   2]                      Subtype : 0000
[37Dh 0893   4]                          UID : 0000001E
[381h 0897   4]                 ResourceInfo : 1D 00 00 00 

[385h 0901   4]                       Length : 00000010
[389h 0905   2]                         Type : 0003
[38Bh 0907   2]                      Subtype : 0000
[38Dh 0909   4]                          UID : 0000001F
[391h 0913   4]                 ResourceInfo : 1E 00 00 00 

[395h 0917   4]                       Length : 00000010
[399h 0921   2]                         Type : 0003
[39Bh 0923   2]                      Subtype : 0000
[39Dh 0925   4]                          UID : 00000020
[3A1h 0929   4]                 ResourceInfo : 1F 00 00 00 

[3A5h 0933   4]                       Length : 00000018
[3A9h 0937   4]                    Vendor ID : 4144564E
[3ADh 0941   4]                 Subvendor ID : 00000000
[3B1h 0945   2]                    Device ID : 000A
[3B3h 0947   2]                 Subdevice ID : 0000
[3B5h 0949   2]                     Revision : 0000
[3B7h 0951   2]                     Reserved : 0000
[3B9h 0953   4]           Shared Info Length : 00000000

[3BDh 0957   2]                Major Version : 00B0
[3BFh 0959   2]                Minor Version : 0000
[3C1h 0961   4]        MMIO Base Address Low : 484D5241
[3C5h 0965   4]       MMIO Base Address High : 00000000
[3C9h 0969   4]                GSI Interrupt : 00000310
[3CDh 0973   1]           Interrupt Polarity : 00
[3CEh 0974   1]               Interrupt Mode : 00
[3CFh 0975   1]                 Num Channels : 00
[3D0h 0976   1]            DMA Address Width : 00
[3D1h 0977   2]            Base Request Line : 0000
[3D3h 0979   2]        Num Handshake Signals : 0000
[3D5h 0981   4]               Max Block Size : 00000098

[3BDh 0957   4]                       Length : 000000B0
[3C1h 0961   4]                    Vendor ID : 484D5241
[3C5h 0965   4]                 Subvendor ID : 00000000
[3C9h 0969   2]                    Device ID : 0310
[3CBh 0971   2]                 Subdevice ID : 0000
[3CDh 0973   2]                     Revision : 0000
[3CFh 0975   2]                     Reserved : 0000
[3D1h 0977   4]           Shared Info Length : 00000000

[3D5h 0981   2]                Major Version : 0098
[3D7h 0983   2]                Minor Version : 0000
[3D9h 0985   4]        MMIO Base Address Low : 00000004
[3DDh 0989   4]       MMIO Base Address High : 00000000
[3E1h 0993   4]                GSI Interrupt : 00000002
[3E5h 0997   1]           Interrupt Polarity : 01
[3E6h 0998   1]               Interrupt Mode : 00
[3E7h 0999   1]                 Num Channels : 00
[3E8h 1000   1]            DMA Address Width : 00
[3E9h 1001   2]            Base Request Line : 3000
[3EBh 1003   2]        Num Handshake Signals : 5004
[3EDh 1005   4]               Max Block Size : 00000000

[3D5h 0981   4]                       Length : 00000098
[3D9h 0985   2]                         Type : 0004
[3DBh 0987   2]                      Subtype : 0000
[3DDh 0989   4]                          UID : 00000000
[3E1h 0993 140]                 ResourceInfo : \
    02 00 00 00 01 00 00 00 00 30 04 50 00 00 00 00 \
    00 00 00 00 02 00 00 00 00 00 00 00 00 00 00 00 \
    00 00 00 00 00 00 00 00 00 00 00 00 02 00 00 00 \
    01 00 00 00 00 00 00 00 00 00 00 00 00 00 00 00 \
    00 00 00 00 02 00 00 00 02 00 00 00 00 00 00 00 \
    00 00 00 00 00 00 00 00 00 00 00 00 02 00 00 00 \
    03 00 00 00 00 00 00 00 00 00 00 00 00 00 00 00 \
    00 00 00 00 02 00 00 00 04 00 00 00 00 00 00 00 \
    00 00 00 00 00 00 00 00 00 00 00 00 

Raw Table Data: Length 1133 (0x46D)

    0000: 43 53 52 54 6D 04 00 00 00 3D 4E 56 49 44 49 41  // CSRTm....=NVIDIA
    0010: 41 50 33 30 45 44 4B 32 20 08 00 02 41 50 33 30  // AP30EDK2 ...AP30
    0020: 97 00 00 00 81 03 00 00 4E 56 44 41 00 00 00 00  // ........NVDA....
    0030: 09 00 00 00 00 00 00 00 00 00 00 00 69 01 00 00  // ............i...
    0040: 03 00 01 00 00 00 00 00 00 A0 00 60 20 00 00 00  // ...........` ...
    0050: 30 00 00 00 00 00 00 00 40 00 00 00 3A 00 00 00  // 0.......@...:...
    0060: 00 14 00 00 00 01 00 00 00 00 00 20 00 00 00 00  // ........... ....
    0070: A4 00 00 01 20 02 00 00 00 00 00 20 00 00 00 00  // .... ...... ....
    0080: A4 00 00 01 20 03 00 00 00 00 00 20 00 00 00 00  // .... ...... ....
    0090: A4 00 00 01 20 04 00 00 00 00 00 20 00 00 00 00  // .... ...... ....
    00A0: A4 00 00 01 20 08 00 00 00 00 00 20 00 00 00 00  // .... ...... ....
    00B0: A4 00 00 01 00 09 00 00 00 00 00 20 00 00 00 00  // ........... ....
    00C0: A4 00 00 01 00 0A 00 00 00 00 00 20 00 00 00 00  // ........... ....
    00D0: A4 00 00 01 00 13 00 00 00 00 00 20 00 00 00 00  // ........... ....
    00E0: A4 00 00 01 00 14 00 00 00 00 00 20 00 00 00 00  // ........... ....
    00F0: A4 00 00 01 00 15 00 00 00 00 00 20 00 00 00 00  // ........... ....
    0100: A4 00 00 01 00 16 00 00 00 00 00 20 00 00 00 00  // ........... ....
    0110: A4 00 00 01 00 17 00 00 00 00 00 20 00 00 00 00  // ........... ....
    0120: A4 00 00 01 00 1A 00 00 00 00 00 20 00 00 00 00  // ........... ....
    0130: A4 00 00 01 00 18 00 00 00 00 00 20 00 00 00 00  // ........... ....
    0140: A4 00 00 01 00 0F 00 00 00 00 00 20 00 00 00 00  // ........... ....
    0150: A4 00 00 01 20 10 00 00 00 00 00 20 00 00 00 00  // .... ...... ....
    0160: A4 00 00 01 20 11 00 00 00 00 00 20 00 00 00 00  // .... ...... ....
    0170: A4 00 00 01 20 12 00 00 00 00 00 20 00 00 00 00  // .... ...... ....
    0180: A4 00 00 01 20 1B 00 00 00 00 00 20 00 00 00 00  // .... ...... ....
    0190: A4 00 00 01 20 1C 00 00 00 00 00 20 00 00 00 00  // .... ...... ....
    01A0: A4 00 00 01 20 10 00 00 00 03 00 00 00 01 00 00  // .... ...........
    01B0: 00 00 00 00 00 10 00 00 00 03 00 00 00 02 00 00  // ................
    01C0: 00 01 00 00 00 10 00 00 00 03 00 00 00 03 00 00  // ................
    01D0: 00 02 00 00 00 10 00 00 00 03 00 00 00 04 00 00  // ................
    01E0: 00 03 00 00 00 10 00 00 00 03 00 00 00 05 00 00  // ................
    01F0: 00 04 00 00 00 10 00 00 00 03 00 00 00 06 00 00  // ................
    0200: 00 05 00 00 00 10 00 00 00 03 00 00 00 07 00 00  // ................
    0210: 00 06 00 00 00 10 00 00 00 03 00 00 00 08 00 00  // ................
    0220: 00 07 00 00 00 10 00 00 00 03 00 00 00 09 00 00  // ................
    0230: 00 08 00 00 00 10 00 00 00 03 00 00 00 0A 00 00  // ................
    0240: 00 09 00 00 00 10 00 00 00 03 00 00 00 0B 00 00  // ................
    0250: 00 0A 00 00 00 10 00 00 00 03 00 00 00 0C 00 00  // ................
    0260: 00 0B 00 00 00 10 00 00 00 03 00 00 00 0D 00 00  // ................
    0270: 00 0C 00 00 00 10 00 00 00 03 00 00 00 0E 00 00  // ................
    0280: 00 0D 00 00 00 10 00 00 00 03 00 00 00 0F 00 00  // ................
    0290: 00 0E 00 00 00 10 00 00 00 03 00 00 00 10 00 00  // ................
    02A0: 00 0F 00 00 00 10 00 00 00 03 00 00 00 11 00 00  // ................
    02B0: 00 10 00 00 00 10 00 00 00 03 00 00 00 12 00 00  // ................
    02C0: 00 11 00 00 00 10 00 00 00 03 00 00 00 13 00 00  // ................
    02D0: 00 12 00 00 00 10 00 00 00 03 00 00 00 14 00 00  // ................
    02E0: 00 13 00 00 00 10 00 00 00 03 00 00 00 15 00 00  // ................
    02F0: 00 14 00 00 00 10 00 00 00 03 00 00 00 16 00 00  // ................
    0300: 00 15 00 00 00 10 00 00 00 03 00 00 00 17 00 00  // ................
    0310: 00 16 00 00 00 10 00 00 00 03 00 00 00 18 00 00  // ................
    0320: 00 17 00 00 00 10 00 00 00 03 00 00 00 19 00 00  // ................
    0330: 00 18 00 00 00 10 00 00 00 03 00 00 00 1A 00 00  // ................
    0340: 00 19 00 00 00 10 00 00 00 03 00 00 00 1B 00 00  // ................
    0350: 00 1A 00 00 00 10 00 00 00 03 00 00 00 1C 00 00  // ................
    0360: 00 1B 00 00 00 10 00 00 00 03 00 00 00 1D 00 00  // ................
    0370: 00 1C 00 00 00 10 00 00 00 03 00 00 00 1E 00 00  // ................
    0380: 00 1D 00 00 00 10 00 00 00 03 00 00 00 1F 00 00  // ................
    0390: 00 1E 00 00 00 10 00 00 00 03 00 00 00 20 00 00  // ............. ..
    03A0: 00 1F 00 00 00 18 00 00 00 4E 56 44 41 00 00 00  // .........NVDA...
    03B0: 00 0A 00 00 00 00 00 00 00 00 00 00 00 B0 00 00  // ................
    03C0: 00 41 52 4D 48 00 00 00 00 10 03 00 00 00 00 00  // .ARMH...........
    03D0: 00 00 00 00 00 98 00 00 00 04 00 00 00 00 00 00  // ................
    03E0: 00 02 00 00 00 01 00 00 00 00 30 04 50 00 00 00  // ..........0.P...
    03F0: 00 00 00 00 00 02 00 00 00 00 00 00 00 00 00 00  // ................
    0400: 00 00 00 00 00 00 00 00 00 00 00 00 00 02 00 00  // ................
    0410: 00 01 00 00 00 00 00 00 00 00 00 00 00 00 00 00  // ................
    0420: 00 00 00 00 00 02 00 00 00 02 00 00 00 00 00 00  // ................
    0430: 00 00 00 00 00 00 00 00 00 00 00 00 00 02 00 00  // ................
    0440: 00 03 00 00 00 00 00 00 00 00 00 00 00 00 00 00  // ................
    0450: 00 00 00 00 00 02 00 00 00 04 00 00 00 00 00 00  // ................
    0460: 00 00 00 00 00 00 00 00 00 00 00 00 00           // .............
